; Function Attrs: null_pointer_is_valid sspstrong uwtable
define internal i32 @dissect_f1ap_ULTCIStateID(ptr noundef %0, i32 noundef %1, ptr noundef %2, ptr noundef %3, i32 noundef %4) #0 {
  %6 = alloca ptr, align 8
  call void @llvm.lifetime.start.p0(i64 8, ptr nonnull %6) #6
  store ptr null, ptr %6, align 8
  %7 = call i32 @dissect_per_octet_string(ptr noundef %0, i32 noundef %1, ptr noundef %2, ptr noundef %3, i32 noundef %4, i32 noundef -1, i32 noundef -1, i1 noundef zeroext false, ptr noundef nonnull %6)
  %8 = load ptr, ptr %6, align 8
  %9 = icmp ne ptr %8, null
  %10 = load ptr, ptr @lte_rrc_conn_reconf_handle, align 8
  %11 = icmp ne ptr %10, null
  %or.cond = select i1 %9, i1 %11, i1 false
  br i1 %or.cond, label %12, label %21

12:                                               ; preds = %5
  %13 = getelementptr inbounds nuw i8, ptr %2, i64 24
  %14 = load ptr, ptr %13, align 8
  %15 = load i32, ptr @ett_f1ap_ULTCIStateID, align 4
  %16 = call ptr @proto_item_add_subtree(ptr noundef %14, i32 noundef %15)
  %17 = load ptr, ptr %6, align 8
  %18 = getelementptr inbounds nuw i8, ptr %2, i64 16
  %19 = load ptr, ptr %18, align 8
  %20 = call i32 @dissect_nr_rrc_TCI_UL_StateId_r17_PDU(ptr noundef %17, ptr noundef %19, ptr noundef %16, ptr noundef null)
  br label %21

21:                                               ; preds = %12, %5
  call void @llvm.lifetime.end.p0(i64 8, ptr nonnull %6) #6
  ret i32 %7
}